target datalayout = "e-m:e-p270:32:32-p271:32:32-p272:64:64-i64:64-i128:128-f80:128-n8:16:32:64-S128"
target triple = "x86_64-pc-linux-gnu"

; Function Attrs: nounwind uwtable
define internal i32 @BytePrecision(i32 noundef %0) #0 {
  %2 = alloca i32, align 4
  %3 = alloca i32, align 4
  store i32 %0, ptr %2, align 4, !tbaa !3
  call void @llvm.lifetime.start.p0(i64 4, ptr %3) #9
  store i32 4, ptr %3, align 4, !tbaa !3
  br label %4

4:                                                ; preds = %16, %1
  %5 = load i32, ptr %3, align 4, !tbaa !3
  %6 = icmp ne i32 %5, 0
  br i1 %6, label %7, label %19

7:                                                ; preds = %4
  %8 = load i32, ptr %2, align 4, !tbaa !3
  %9 = load i32, ptr %3, align 4, !tbaa !3
  %10 = sub i32 %9, 1
  %11 = mul i32 %10, 8
  %12 = lshr i32 %8, %11
  %13 = icmp ne i32 %12, 0
  br i1 %13, label %14, label %15

14:                                               ; preds = %7
  br label %19

15:                                               ; preds = %7
  br label %16

16:                                               ; preds = %15
  %17 = load i32, ptr %3, align 4, !tbaa !3
  %18 = add i32 %17, -1
  store i32 %18, ptr %3, align 4, !tbaa !3
  br label %4, !llvm.loop !13

19:                                               ; preds = %14, %4
  %20 = load i32, ptr %3, align 4, !tbaa !3
  call void @llvm.lifetime.end.p0(i64 4, ptr %3) #9
  ret i32 %20
}

; Function Attrs: nounwind uwtable
define i32 @SetLength(i32 noundef %0, ptr noundef %1) #0 {
  %3 = alloca i32, align 4
  %4 = alloca ptr, align 8
  %5 = alloca i32, align 4
  %6 = alloca i8, align 1
  store i32 %0, ptr %3, align 4, !tbaa !3
  store ptr %1, ptr %4, align 8, !tbaa !7
  call void @llvm.lifetime.start.p0(i64 4, ptr %5) #9
  store i32 0, ptr %5, align 4, !tbaa !3
  %7 = load i32, ptr %3, align 4, !tbaa !3
  %8 = icmp ult i32 %7, 128
  br i1 %8, label %9, label %22

9:                                                ; preds = %2
  %10 = load ptr, ptr %4, align 8, !tbaa !7
  %11 = icmp ne ptr %10, null
  br i1 %11, label %12, label %19

12:                                               ; preds = %9
  %13 = load i32, ptr %3, align 4, !tbaa !3
  %14 = trunc i32 %13 to i8
  %15 = load ptr, ptr %4, align 8, !tbaa !7
  %16 = load i32, ptr %5, align 4, !tbaa !3
  %17 = zext i32 %16 to i64
  %18 = getelementptr inbounds nuw i8, ptr %15, i64 %17
  store i8 %14, ptr %18, align 1, !tbaa !10
  br label %19

19:                                               ; preds = %12, %9
  %20 = load i32, ptr %5, align 4, !tbaa !3
  %21 = add i32 %20, 1
  store i32 %21, ptr %5, align 4, !tbaa !3
  br label %66

22:                                               ; preds = %2
  call void @llvm.lifetime.start.p0(i64 1, ptr %6) #9
  %23 = load i32, ptr %3, align 4, !tbaa !3
  %24 = call i32 @BytePrecision(i32 noundef %23)
  %25 = trunc i32 %24 to i8
  store i8 %25, ptr %6, align 1, !tbaa !10
  %26 = load ptr, ptr %4, align 8, !tbaa !7
  %27 = icmp ne ptr %26, null
  br i1 %27, label %28, label %37

28:                                               ; preds = %22
  %29 = load i8, ptr %6, align 1, !tbaa !10
  %30 = zext i8 %29 to i32
  %31 = or i32 %30, 128
  %32 = trunc i32 %31 to i8
  %33 = load ptr, ptr %4, align 8, !tbaa !7
  %34 = load i32, ptr %5, align 4, !tbaa !3
  %35 = zext i32 %34 to i64
  %36 = getelementptr inbounds nuw i8, ptr %33, i64 %35
  store i8 %32, ptr %36, align 1, !tbaa !10
  br label %37

37:                                               ; preds = %28, %22
  %38 = load i32, ptr %5, align 4, !tbaa !3
  %39 = add i32 %38, 1
  store i32 %39, ptr %5, align 4, !tbaa !3
  br label %40

40:                                               ; preds = %62, %37
  %41 = load i8, ptr %6, align 1, !tbaa !10
  %42 = zext i8 %41 to i32
  %43 = icmp sgt i32 %42, 0
  br i1 %43, label %44, label %65

44:                                               ; preds = %40
  %45 = load ptr, ptr %4, align 8, !tbaa !7
  %46 = icmp ne ptr %45, null
  br i1 %46, label %47, label %59

47:                                               ; preds = %44
  %48 = load i32, ptr %3, align 4, !tbaa !3
  %49 = load i8, ptr %6, align 1, !tbaa !10
  %50 = zext i8 %49 to i32
  %51 = sub nsw i32 %50, 1
  %52 = mul nsw i32 %51, 8
  %53 = lshr i32 %48, %52
  %54 = trunc i32 %53 to i8
  %55 = load ptr, ptr %4, align 8, !tbaa !7
  %56 = load i32, ptr %5, align 4, !tbaa !3
  %57 = zext i32 %56 to i64
  %58 = getelementptr inbounds nuw i8, ptr %55, i64 %57
  store i8 %54, ptr %58, align 1, !tbaa !10
  br label %59

59:                                               ; preds = %47, %44
  %60 = load i32, ptr %5, align 4, !tbaa !3
  %61 = add i32 %60, 1
  store i32 %61, ptr %5, align 4, !tbaa !3
  br label %62

62:                                               ; preds = %59
  %63 = load i8, ptr %6, align 1, !tbaa !10
  %64 = add i8 %63, -1
  store i8 %64, ptr %6, align 1, !tbaa !10
  br label %40, !llvm.loop !61

65:                                               ; preds = %40
  call void @llvm.lifetime.end.p0(i64 1, ptr %6) #9
  br label %66

66:                                               ; preds = %65, %19
  %67 = load i32, ptr %5, align 4, !tbaa !3
  call void @llvm.lifetime.end.p0(i64 4, ptr %5) #9
  ret i32 %67
}

; Function Attrs: nounwind uwtable
define i32 @SetLengthEx(i32 noundef %0, ptr noundef %1, i8 noundef zeroext %2) #0 {
  %4 = alloca i32, align 4
  %5 = alloca i32, align 4
  %6 = alloca ptr, align 8
  %7 = alloca i8, align 1
  store i32 %0, ptr %5, align 4, !tbaa !3
  store ptr %1, ptr %6, align 8, !tbaa !7
  store i8 %2, ptr %7, align 1, !tbaa !10
  %8 = load i8, ptr %7, align 1, !tbaa !10
  %9 = icmp ne i8 %8, 0
  br i1 %9, label %10, label %17

10:                                               ; preds = %3
  %11 = load ptr, ptr %6, align 8, !tbaa !7
  %12 = icmp ne ptr %11, null
  br i1 %12, label %13, label %16

13:                                               ; preds = %10
  %14 = load ptr, ptr %6, align 8, !tbaa !7
  %15 = getelementptr inbounds i8, ptr %14, i64 0
  store i8 -128, ptr %15, align 1, !tbaa !10
  br label %16

16:                                               ; preds = %13, %10
  store i32 1, ptr %4, align 4
  br label %21

17:                                               ; preds = %3
  %18 = load i32, ptr %5, align 4, !tbaa !3
  %19 = load ptr, ptr %6, align 8, !tbaa !7
  %20 = call i32 @SetLength(i32 noundef %18, ptr noundef %19)
  store i32 %20, ptr %4, align 4
  br label %21

21:                                               ; preds = %17, %16
  %22 = load i32, ptr %4, align 4
  ret i32 %22
}

; Function Attrs: nounwind uwtable
define i32 @SetHeader(i8 noundef zeroext %0, i32 noundef %1, ptr noundef %2, i8 noundef zeroext %3) #0 {
  %5 = alloca i8, align 1
  %6 = alloca i32, align 4
  %7 = alloca ptr, align 8
  %8 = alloca i8, align 1
  store i8 %0, ptr %5, align 1, !tbaa !10
  store i32 %1, ptr %6, align 4, !tbaa !3
  store ptr %2, ptr %7, align 8, !tbaa !7
  store i8 %3, ptr %8, align 1, !tbaa !10
  %9 = load ptr, ptr %7, align 8, !tbaa !7
  %10 = icmp ne ptr %9, null
  br i1 %10, label %11, label %15

11:                                               ; preds = %4
  %12 = load i8, ptr %5, align 1, !tbaa !10
  %13 = load ptr, ptr %7, align 8, !tbaa !7
  %14 = getelementptr inbounds i8, ptr %13, i64 0
  store i8 %12, ptr %14, align 1, !tbaa !10
  br label %15

15:                                               ; preds = %11, %4
  %16 = load i32, ptr %6, align 4, !tbaa !3
  %17 = load ptr, ptr %7, align 8, !tbaa !7
  %18 = icmp ne ptr %17, null
  br i1 %18, label %19, label %22

19:                                               ; preds = %15
  %20 = load ptr, ptr %7, align 8, !tbaa !7
  %21 = getelementptr inbounds i8, ptr %20, i64 1
  br label %23

22:                                               ; preds = %15
  br label %23

23:                                               ; preds = %22, %19
  %24 = phi ptr [ %21, %19 ], [ null, %22 ]
  %25 = load i8, ptr %8, align 1, !tbaa !10
  %26 = call i32 @SetLengthEx(i32 noundef %16, ptr noundef %24, i8 noundef zeroext %25)
  %27 = add i32 %26, 1
  ret i32 %27
}

; Function Attrs: nounwind uwtable
define i32 @SetImplicit(i8 noundef zeroext %0, i8 noundef zeroext %1, i32 noundef %2, ptr noundef %3, i8 noundef zeroext %4) #0 {
  %6 = alloca i8, align 1
  %7 = alloca i8, align 1
  %8 = alloca i32, align 4
  %9 = alloca ptr, align 8
  %10 = alloca i8, align 1
  %11 = alloca i8, align 1
  store i8 %0, ptr %6, align 1, !tbaa !10
  store i8 %1, ptr %7, align 1, !tbaa !10
  store i32 %2, ptr %8, align 4, !tbaa !3
  store ptr %3, ptr %9, align 8, !tbaa !7
  store i8 %4, ptr %10, align 1, !tbaa !10
  call void @llvm.lifetime.start.p0(i64 1, ptr %11) #9
  store i8 0, ptr %11, align 1, !tbaa !10
  %12 = load i8, ptr %6, align 1, !tbaa !10
  %13 = zext i8 %12 to i32
  %14 = icmp eq i32 %13, 4
  br i1 %14, label %15, label %24

15:                                               ; preds = %5
  %16 = load i8, ptr %10, align 1, !tbaa !10
  %17 = zext i8 %16 to i32
  %18 = icmp ne i32 %17, 0
  br i1 %18, label %19, label %24

19:                                               ; preds = %15
  %20 = load i8, ptr %7, align 1, !tbaa !10
  %21 = zext i8 %20 to i32
  %22 = or i32 160, %21
  %23 = trunc i32 %22 to i8
  store i8 %23, ptr %6, align 1, !tbaa !10
  br label %40

24:                                               ; preds = %15, %5
  %25 = load i8, ptr %6, align 1, !tbaa !10
  %26 = zext i8 %25 to i32
  %27 = icmp eq i32 %26, 16
  br i1 %27, label %32, label %28

28:                                               ; preds = %24
  %29 = load i8, ptr %6, align 1, !tbaa !10
  %30 = zext i8 %29 to i32
  %31 = icmp eq i32 %30, 17
  br label %32

32:                                               ; preds = %28, %24
  %33 = phi i1 [ true, %24 ], [ %31, %28 ]
  %34 = select i1 %33, i32 32, i32 0
  %35 = or i32 %34, 128
  %36 = load i8, ptr %7, align 1, !tbaa !10
  %37 = zext i8 %36 to i32
  %38 = or i32 %35, %37
  %39 = trunc i32 %38 to i8
  store i8 %39, ptr %6, align 1, !tbaa !10
  br label %40

40:                                               ; preds = %32, %19
  %41 = load i8, ptr %10, align 1, !tbaa !10
  %42 = zext i8 %41 to i32
  %43 = icmp ne i32 %42, 0
  br i1 %43, label %44, label %50

44:                                               ; preds = %40
  %45 = load i8, ptr %6, align 1, !tbaa !10
  %46 = zext i8 %45 to i32
  %47 = and i32 %46, 32
  %48 = icmp ne i32 %47, 0
  br i1 %48, label %49, label %50

49:                                               ; preds = %44
  store i8 1, ptr %11, align 1, !tbaa !10
  br label %50

50:                                               ; preds = %49, %44, %40
  %51 = load i8, ptr %6, align 1, !tbaa !10
  %52 = load i32, ptr %8, align 4, !tbaa !3
  %53 = load ptr, ptr %9, align 8, !tbaa !7
  %54 = load i8, ptr %11, align 1, !tbaa !10
  %55 = call i32 @SetHeader(i8 noundef zeroext %51, i32 noundef %52, ptr noundef %53, i8 noundef zeroext %54)
  call void @llvm.lifetime.end.p0(i64 1, ptr %11) #9
  ret i32 %55
}