; Function Attrs: nofree norecurse nosync nounwind memory(write, inaccessiblemem: none) uwtable
define i32 @SetImplicit(i8 noundef zeroext %0, i8 noundef zeroext %1, i32 noundef %2, ptr noundef writeonly captures(address_is_null) %3, i8 noundef zeroext %4) local_unnamed_addr #10 {
  %6 = icmp eq i8 %0, 4
  %7 = icmp ne i8 %4, 0
  %or.cond = and i1 %6, %7
  br i1 %or.cond, label %8, label %10

8:                                                ; preds = %5
  %9 = or i8 %1, -96
  br label %15

10:                                               ; preds = %5
  %11 = and i8 %0, -2
  %12 = icmp eq i8 %11, 16
  %13 = select i1 %12, i8 -96, i8 -128
  %14 = or i8 %13, %1
  br label %15

15:                                               ; preds = %10, %8
  %.013 = phi i8 [ %9, %8 ], [ %14, %10 ]
  %16 = and i8 %.013, 32
  %.not = icmp ne i8 %16, 0
  %or.cond15.not = and i1 %7, %.not
  %.not.i = icmp eq ptr %3, null
  br i1 %.not.i, label %17, label %.thread.i

17:                                               ; preds = %15
  %18 = icmp ult i32 %2, 128
  %or.cond.i = or i1 %18, %or.cond15.not
  br i1 %or.cond.i, label %SetHeader.exit, label %.preheader.i.i.preheader.i

.preheader.i.i.preheader.i:                       ; preds = %.thread8.i, %17
  %.ph.i = phi ptr [ null, %17 ], [ %19, %.thread8.i ]
  br label %.preheader.i.i.i

.thread.i:                                        ; preds = %15
  store i8 %.013, ptr %3, align 1, !tbaa !3
  %19 = getelementptr inbounds nuw i8, ptr %3, i64 1
  br i1 %or.cond15.not, label %20, label %.thread8.i

20:                                               ; preds = %.thread.i
  store i8 -128, ptr %19, align 1, !tbaa !3
  br label %SetHeader.exit

.thread8.i:                                       ; preds = %.thread.i
  %21 = icmp ult i32 %2, 128
  br i1 %21, label %22, label %.preheader.i.i.preheader.i

22:                                               ; preds = %.thread8.i
  %23 = trunc nuw nsw i32 %2 to i8
  store i8 %23, ptr %19, align 1, !tbaa !3
  br label %SetHeader.exit

.preheader.i.i.i:                                 ; preds = %27, %.preheader.i.i.preheader.i
  %.06.i.i.i.i = phi i32 [ %28, %27 ], [ 4, %.preheader.i.i.preheader.i ]
  %24 = shl i32 %.06.i.i.i.i, 3
  %25 = add nsw i32 %24, -8
  %26 = lshr i32 %2, %25
  %.not5.i.i.i.i = icmp eq i32 %26, 0
  br i1 %.not5.i.i.i.i, label %27, label %BytePrecision.exit.i.i.i

27:                                               ; preds = %.preheader.i.i.i
  %28 = add nsw i32 %.06.i.i.i.i, -1
  %.not.i.i.i.i = icmp eq i32 %28, 0
  br i1 %.not.i.i.i.i, label %BytePrecision.exit.i.i.i, label %.preheader.i.i.i, !llvm.loop !6

BytePrecision.exit.i.i.i:                         ; preds = %27, %.preheader.i.i.i
  %.0.lcssa.i.i.i.i = phi i32 [ %.06.i.i.i.i, %.preheader.i.i.i ], [ 0, %27 ]
  %29 = trunc i32 %.0.lcssa.i.i.i.i to i8
  br i1 %.not.i, label %30, label %.thread.i.i.i

30:                                               ; preds = %BytePrecision.exit.i.i.i
  %.not2628.i.i.i = icmp eq i8 %29, 0
  br i1 %.not2628.i.i.i, label %SetHeader.exit, label %.lr.ph.split.us.preheader.i.i.i

.thread.i.i.i:                                    ; preds = %BytePrecision.exit.i.i.i
  %31 = or i8 %29, -128
  store i8 %31, ptr %.ph.i, align 1, !tbaa !3
  %.not262836.i.i.i = icmp eq i8 %29, 0
  br i1 %.not262836.i.i.i, label %SetHeader.exit, label %.lr.ph.split.i.i.i

.lr.ph.split.us.preheader.i.i.i:                  ; preds = %30
  %32 = add i32 %.0.lcssa.i.i.i.i, 255
  %33 = and i32 %32, 255
  %34 = add nuw nsw i32 %33, 2
  br label %SetHeader.exit

.lr.ph.split.i.i.i:                               ; preds = %.thread.i.i.i, %.lr.ph.split.i.i.i
  %indvars.iv33.i.i.i = phi i64 [ %indvars.iv.next34.i.i.i, %.lr.ph.split.i.i.i ], [ 1, %.thread.i.i.i ]
  %indvars.iv.i.i.i = phi i32 [ %indvars.iv.next.i.i.i, %.lr.ph.split.i.i.i ], [ %.0.lcssa.i.i.i.i, %.thread.i.i.i ]
  %35 = shl nuw nsw i32 %indvars.iv.i.i.i, 3
  %36 = add nsw i32 %35, -8
  %37 = lshr i32 %2, %36
  %38 = trunc i32 %37 to i8
  %39 = getelementptr inbounds nuw i8, ptr %.ph.i, i64 %indvars.iv33.i.i.i
  store i8 %38, ptr %39, align 1, !tbaa !3
  %indvars.iv.next34.i.i.i = add nuw nsw i64 %indvars.iv33.i.i.i, 1
  %indvars.iv.next.i.i.i = add nsw i32 %indvars.iv.i.i.i, -1
  %.not26.wide.i.i.i = icmp eq i32 %indvars.iv.next.i.i.i, 0
  br i1 %.not26.wide.i.i.i, label %.loopexit.loopexit31.i.i.i, label %.lr.ph.split.i.i.i, !llvm.loop !48

.loopexit.loopexit31.i.i.i:                       ; preds = %.lr.ph.split.i.i.i
  %40 = trunc nuw nsw i64 %indvars.iv.next34.i.i.i to i32
  br label %SetHeader.exit

SetHeader.exit:                                   ; preds = %17, %20, %22, %30, %.thread.i.i.i, %.lr.ph.split.us.preheader.i.i.i, %.loopexit.loopexit31.i.i.i
  %.0.i.i = phi i32 [ 1, %20 ], [ 1, %22 ], [ 1, %30 ], [ %34, %.lr.ph.split.us.preheader.i.i.i ], [ %40, %.loopexit.loopexit31.i.i.i ], [ 1, %.thread.i.i.i ], [ 1, %17 ]
  %41 = add i32 %.0.i.i, 1
  ret i32 %41
}